target datalayout = "e-m:e-p270:32:32-p271:32:32-p272:64:64-i64:64-i128:128-f80:128-n8:16:32:64-S128"
target triple = "x86_64-pc-linux-gnu"

%struct.AVOption = type { ptr, ptr, i32, i32, %union.anon, double, double, i32, ptr }
%union.anon = type { i64 }

; Function Attrs: nounwind uwtable
define internal ptr @opt_array_pcount(ptr noundef %0) #0 {
  %2 = alloca ptr, align 8
  store ptr %0, ptr %2, align 8, !tbaa !4
  %3 = load ptr, ptr %2, align 8, !tbaa !4
  %4 = getelementptr inbounds ptr, ptr %3, i64 1
  ret ptr %4
}

; Function Attrs: nounwind uwtable
define i32 @av_opt_get_array_size(ptr noundef %0, ptr noundef %1, i32 noundef %2, ptr noundef %3) #0 {
  %5 = alloca i32, align 4
  %6 = alloca ptr, align 8
  %7 = alloca ptr, align 8
  %8 = alloca i32, align 4
  %9 = alloca ptr, align 8
  %10 = alloca ptr, align 8
  %11 = alloca ptr, align 8
  %12 = alloca ptr, align 8
  %13 = alloca i32, align 4
  store ptr %0, ptr %6, align 8, !tbaa !4
  store ptr %1, ptr %7, align 8, !tbaa !19
  store i32 %2, ptr %8, align 4, !tbaa !20
  store ptr %3, ptr %9, align 8, !tbaa !30
  call void @llvm.lifetime.start.p0(i64 8, ptr %10) #11
  call void @llvm.lifetime.start.p0(i64 8, ptr %11) #11
  call void @llvm.lifetime.start.p0(i64 8, ptr %12) #11
  %14 = load ptr, ptr %6, align 8, !tbaa !4
  %15 = load ptr, ptr %7, align 8, !tbaa !19
  %16 = load i32, ptr %8, align 4, !tbaa !20
  %17 = call ptr @av_opt_find2(ptr noundef %14, ptr noundef %15, ptr noundef null, i32 noundef 0, i32 noundef %16, ptr noundef %10)
  store ptr %17, ptr %12, align 8, !tbaa !8
  %18 = load ptr, ptr %12, align 8, !tbaa !8
  %19 = icmp ne ptr %18, null
  br i1 %19, label %20, label %23

20:                                               ; preds = %4
  %21 = load ptr, ptr %10, align 8, !tbaa !4
  %22 = icmp ne ptr %21, null
  br i1 %22, label %24, label %23

23:                                               ; preds = %20, %4
  store i32 -1414549496, ptr %5, align 4
  store i32 1, ptr %13, align 4
  br label %42

24:                                               ; preds = %20
  %25 = load ptr, ptr %12, align 8, !tbaa !8
  %26 = getelementptr inbounds nuw %struct.AVOption, ptr %25, i32 0, i32 3
  %27 = load i32, ptr %26, align 4, !tbaa !21
  %28 = and i32 %27, 65536
  %29 = icmp ne i32 %28, 0
  br i1 %29, label %31, label %30

30:                                               ; preds = %24
  store i32 -22, ptr %5, align 4
  store i32 1, ptr %13, align 4
  br label %42

31:                                               ; preds = %24
  %32 = load ptr, ptr %10, align 8, !tbaa !4
  %33 = load ptr, ptr %12, align 8, !tbaa !8
  %34 = getelementptr inbounds nuw %struct.AVOption, ptr %33, i32 0, i32 2
  %35 = load i32, ptr %34, align 8, !tbaa !34
  %36 = sext i32 %35 to i64
  %37 = getelementptr inbounds i8, ptr %32, i64 %36
  store ptr %37, ptr %11, align 8, !tbaa !4
  %38 = load ptr, ptr %11, align 8, !tbaa !4
  %39 = call ptr @opt_array_pcount(ptr noundef %38)
  %40 = load i32, ptr %39, align 4, !tbaa !20
  %41 = load ptr, ptr %9, align 8, !tbaa !30
  store i32 %40, ptr %41, align 4, !tbaa !20
  store i32 0, ptr %5, align 4
  store i32 1, ptr %13, align 4
  br label %42

42:                                               ; preds = %31, %30, %23
  call void @llvm.lifetime.end.p0(i64 8, ptr %12) #11
  call void @llvm.lifetime.end.p0(i64 8, ptr %11) #11
  call void @llvm.lifetime.end.p0(i64 8, ptr %10) #11
  %43 = load i32, ptr %5, align 4
  ret i32 %43
}