; Function Attrs: nounwind uwtable
define range(i32 -1414549496, 1) i32 @av_opt_get_array_size(ptr noundef %0, ptr noundef %1, i32 noundef %2, ptr noundef writeonly captures(none) %3) local_unnamed_addr #2 {
  %5 = alloca ptr, align 8
  call void @llvm.lifetime.start.p0(i64 8, ptr nonnull %5) #18
  %6 = call ptr @av_opt_find2(ptr noundef %0, ptr noundef %1, ptr noundef null, i32 noundef 0, i32 noundef %2, ptr noundef nonnull %5)
  %7 = icmp ne ptr %6, null
  %8 = load ptr, ptr %5, align 8
  %9 = icmp ne ptr %8, null
  %or.cond = select i1 %7, i1 %9, i1 false
  br i1 %or.cond, label %10, label %21

10:                                               ; preds = %4
  %11 = getelementptr inbounds nuw i8, ptr %6, i64 20
  %12 = load i32, ptr %11, align 4, !tbaa !18
  %13 = and i32 %12, 65536
  %.not = icmp eq i32 %13, 0
  br i1 %.not, label %21, label %14

14:                                               ; preds = %10
  %15 = getelementptr inbounds nuw i8, ptr %6, i64 16
  %16 = load i32, ptr %15, align 8, !tbaa !28
  %17 = sext i32 %16 to i64
  %18 = getelementptr inbounds i8, ptr %8, i64 %17
  %19 = getelementptr inbounds nuw i8, ptr %18, i64 8
  %20 = load i32, ptr %19, align 4, !tbaa !26
  store i32 %20, ptr %3, align 4, !tbaa !26
  br label %21

21:                                               ; preds = %10, %4, %14
  %.0 = phi i32 [ 0, %14 ], [ -1414549496, %4 ], [ -22, %10 ]
  call void @llvm.lifetime.end.p0(i64 8, ptr nonnull %5) #18
  ret i32 %.0
}